target datalayout = "e-m:e-p270:32:32-p271:32:32-p272:64:64-i64:64-i128:128-f80:128-n8:16:32:64-S128"
target triple = "x86_64-unknown-linux-gnu"

%"struct.(anonymous namespace)::arith_degree_probe::proc" = type <{ ptr, %class.mpq_manager, %"class.polynomial::manager", %class.default_expr2polynomial, %class.arith_util, i32, [4 x i8], i64, i32, [4 x i8] }>
%class.mpq_manager = type { %class.mpz_manager, %class.mpz, %class.mpz, %class.mpz, %class.mpz, %class.mpq, %class.mpq }
%class.mpz_manager = type { %class.small_object_allocator, %"class.std::recursive_mutex", %class.mpn_manager, i32, %class.mpz, %class.mpz }
%class.small_object_allocator = type { [32 x ptr], [32 x ptr], i64 }
%"class.std::recursive_mutex" = type { %"class.std::__recursive_mutex_base" }
%"class.std::__recursive_mutex_base" = type { %union.pthread_mutex_t }
%union.pthread_mutex_t = type { %struct.__pthread_mutex_s }
%struct.__pthread_mutex_s = type { i32, i32, i32, i32, i32, i16, i16, %struct.__pthread_internal_list }
%struct.__pthread_internal_list = type { ptr, ptr }
%class.mpn_manager = type { i8 }
%class.mpz = type { i32, i8, ptr }
%class.mpq = type { %class.mpz, %class.mpz }
%"class.polynomial::manager" = type { ptr }
%class.default_expr2polynomial = type { %class.expr2polynomial, %class.svector }
%class.expr2polynomial = type { ptr, ptr }
%class.svector = type { %class.vector }
%class.vector = type { ptr }
%class.arith_util = type { ptr, ptr }
%class.ast = type { i32, i24, i32, i32 }
%class.app = type { %class.expr, ptr, i32, [0 x ptr] }
%class.expr = type { %class.ast }
%class.obj_ref = type { ptr, ptr }
%class._scoped_numeral = type { ptr, %class.mpz }

; Function Attrs: mustprogress nounwind uwtable
define linkonce_odr hidden noundef ptr @_ZNK7obj_refIN10polynomial10polynomialENS0_7managerEEcvPS1_Ev(ptr noundef nonnull align 8 dereferenceable(16) %this) #5 comdat align 2 {
entry:
  %this.addr = alloca ptr, align 8
  store ptr %this, ptr %this.addr, align 8
  %this1 = load ptr, ptr %this.addr, align 8
  %m_obj = getelementptr inbounds %class.obj_ref, ptr %this1, i32 0, i32 0
  %0 = load ptr, ptr %m_obj, align 8
  ret ptr %0
}

; Function Attrs: mustprogress nounwind uwtable
define linkonce_odr hidden void @_ZN3mpzC2Ev(ptr noundef nonnull align 8 dereferenceable(16) %this) unnamed_addr #5 comdat align 2 {
entry:
  %this.addr = alloca ptr, align 8
  store ptr %this, ptr %this.addr, align 8
  %this1 = load ptr, ptr %this.addr, align 8
  %m_val = getelementptr inbounds %class.mpz, ptr %this1, i32 0, i32 0
  store i32 0, ptr %m_val, align 8
  %m_kind = getelementptr inbounds %class.mpz, ptr %this1, i32 0, i32 1
  %bf.load = load i8, ptr %m_kind, align 4
  %bf.clear = and i8 %bf.load, -2
  %bf.set = or i8 %bf.clear, 0
  store i8 %bf.set, ptr %m_kind, align 4
  %m_owner = getelementptr inbounds %class.mpz, ptr %this1, i32 0, i32 1
  %bf.load2 = load i8, ptr %m_owner, align 4
  %bf.clear3 = and i8 %bf.load2, -3
  %bf.set4 = or i8 %bf.clear3, 0
  store i8 %bf.set4, ptr %m_owner, align 4
  %m_ptr = getelementptr inbounds %class.mpz, ptr %this1, i32 0, i32 2
  store ptr null, ptr %m_ptr, align 8
  ret void
}

; Function Attrs: mustprogress uwtable
define internal void @_ZN12_GLOBAL__N_118arith_degree_probe4proc11updt_degreeERK7obj_refIN10polynomial10polynomialENS3_7managerEE(ptr noundef nonnull align 8 dereferenceable(804) %this, ptr noundef nonnull align 8 dereferenceable(16) %p) #4 align 2 {
entry:
  %this.addr = alloca ptr, align 8
  %p.addr = alloca ptr, align 8
  %deg = alloca i32, align 4
  store ptr %this, ptr %this.addr, align 8
  store ptr %p, ptr %p.addr, align 8
  %this1 = load ptr, ptr %this.addr, align 8
  %0 = load ptr, ptr %p.addr, align 8
  %call = call noundef ptr @_ZNK7obj_refIN10polynomial10polynomialENS0_7managerEEcvPS1_Ev(ptr noundef nonnull align 8 dereferenceable(16) %0)
  %call2 = call noundef i32 @_ZN10polynomial7manager12total_degreeEPKNS_10polynomialE(ptr noundef %call)
  store i32 %call2, ptr %deg, align 4
  %1 = load i32, ptr %deg, align 4
  %m_max_degree = getelementptr inbounds %"struct.(anonymous namespace)::arith_degree_probe::proc", ptr %this1, i32 0, i32 5
  %2 = load i32, ptr %m_max_degree, align 8
  %cmp = icmp ugt i32 %1, %2
  br i1 %cmp, label %if.then, label %if.end

if.then:                                          ; preds = %entry
  %3 = load i32, ptr %deg, align 4
  %m_max_degree3 = getelementptr inbounds %"struct.(anonymous namespace)::arith_degree_probe::proc", ptr %this1, i32 0, i32 5
  store i32 %3, ptr %m_max_degree3, align 8
  br label %if.end

if.end:                                           ; preds = %if.then, %entry
  %4 = load i32, ptr %deg, align 4
  %conv = zext i32 %4 to i64
  %m_acc_degree = getelementptr inbounds %"struct.(anonymous namespace)::arith_degree_probe::proc", ptr %this1, i32 0, i32 7
  %5 = load i64, ptr %m_acc_degree, align 8
  %add = add i64 %5, %conv
  store i64 %add, ptr %m_acc_degree, align 8
  %m_counter = getelementptr inbounds %"struct.(anonymous namespace)::arith_degree_probe::proc", ptr %this1, i32 0, i32 8
  %6 = load i32, ptr %m_counter, align 8
  %inc = add i32 %6, 1
  store i32 %inc, ptr %m_counter, align 8
  ret void
}

; Function Attrs: mustprogress uwtable
define linkonce_odr hidden void @_ZN15_scoped_numeralI11mpz_managerILb0EEEC2ERS1_(ptr noundef nonnull align 8 dereferenceable(24) %this, ptr noundef nonnull align 8 dereferenceable(600) %m) unnamed_addr #4 comdat align 2 {
entry:
  %this.addr = alloca ptr, align 8
  %m.addr = alloca ptr, align 8
  store ptr %this, ptr %this.addr, align 8
  store ptr %m, ptr %m.addr, align 8
  %this1 = load ptr, ptr %this.addr, align 8
  %m_manager = getelementptr inbounds %class._scoped_numeral, ptr %this1, i32 0, i32 0
  %0 = load ptr, ptr %m.addr, align 8
  store ptr %0, ptr %m_manager, align 8
  %m_num = getelementptr inbounds %class._scoped_numeral, ptr %this1, i32 0, i32 1
  call void @_ZN3mpzC2Ev(ptr noundef nonnull align 8 dereferenceable(16) %m_num)
  ret void
}

; Function Attrs: mustprogress nounwind uwtable
define linkonce_odr hidden void @_ZN7obj_refIN10polynomial10polynomialENS0_7managerEEC2ERS2_(ptr noundef nonnull align 8 dereferenceable(16) %this, ptr noundef nonnull align 8 dereferenceable(8) %m) unnamed_addr #5 comdat align 2 {
entry:
  %this.addr = alloca ptr, align 8
  %m.addr = alloca ptr, align 8
  store ptr %this, ptr %this.addr, align 8
  store ptr %m, ptr %m.addr, align 8
  %this1 = load ptr, ptr %this.addr, align 8
  %m_obj = getelementptr inbounds %class.obj_ref, ptr %this1, i32 0, i32 0
  store ptr null, ptr %m_obj, align 8
  %m_manager = getelementptr inbounds %class.obj_ref, ptr %this1, i32 0, i32 1
  %0 = load ptr, ptr %m.addr, align 8
  store ptr %0, ptr %m_manager, align 8
  ret void
}

; Function Attrs: mustprogress nounwind uwtable
define linkonce_odr hidden noundef ptr @_ZNK3app7get_argEj(ptr noundef nonnull align 8 dereferenceable(32) %this, i32 noundef %idx) #5 comdat align 2 {
entry:
  %this.addr = alloca ptr, align 8
  %idx.addr = alloca i32, align 4
  store ptr %this, ptr %this.addr, align 8
  store i32 %idx, ptr %idx.addr, align 4
  %this1 = load ptr, ptr %this.addr, align 8
  %m_args = getelementptr inbounds %class.app, ptr %this1, i32 0, i32 3
  %0 = load i32, ptr %idx.addr, align 4
  %idxprom = zext i32 %0 to i64
  %arrayidx = getelementptr inbounds [0 x ptr], ptr %m_args, i64 0, i64 %idxprom
  %1 = load ptr, ptr %arrayidx, align 8
  ret ptr %1
}

; Function Attrs: mustprogress uwtable
define internal void @_ZN12_GLOBAL__N_118arith_degree_probe4proc7processEP3app(ptr noundef nonnull align 8 dereferenceable(804) %this, ptr noundef %n) #4 align 2 personality ptr @__gxx_personality_v0 {
entry:
  %this.addr = alloca ptr, align 8
  %n.addr = alloca ptr, align 8
  %lhs = alloca ptr, align 8
  %rhs = alloca ptr, align 8
  %p1 = alloca %class.obj_ref, align 8
  %p2 = alloca %class.obj_ref, align 8
  %exn.slot = alloca ptr, align 8
  %ehselector.slot = alloca i32, align 4
  %d1 = alloca %class._scoped_numeral, align 8
  %d2 = alloca %class._scoped_numeral, align 8
  store ptr %this, ptr %this.addr, align 8
  store ptr %n, ptr %n.addr, align 8
  %this1 = load ptr, ptr %this.addr, align 8
  %0 = load ptr, ptr %n.addr, align 8
  %call = call noundef ptr @_ZNK3app7get_argEj(ptr noundef nonnull align 8 dereferenceable(32) %0, i32 noundef 0)
  store ptr %call, ptr %lhs, align 8
  %1 = load ptr, ptr %n.addr, align 8
  %call2 = call noundef ptr @_ZNK3app7get_argEj(ptr noundef nonnull align 8 dereferenceable(32) %1, i32 noundef 1)
  store ptr %call2, ptr %rhs, align 8
  %m_pm = getelementptr inbounds %"struct.(anonymous namespace)::arith_degree_probe::proc", ptr %this1, i32 0, i32 2
  call void @_ZN7obj_refIN10polynomial10polynomialENS0_7managerEEC2ERS2_(ptr noundef nonnull align 8 dereferenceable(16) %p1, ptr noundef nonnull align 8 dereferenceable(8) %m_pm)
  %m_pm3 = getelementptr inbounds %"struct.(anonymous namespace)::arith_degree_probe::proc", ptr %this1, i32 0, i32 2
  invoke void @_ZN7obj_refIN10polynomial10polynomialENS0_7managerEEC2ERS2_(ptr noundef nonnull align 8 dereferenceable(16) %p2, ptr noundef nonnull align 8 dereferenceable(8) %m_pm3)
          to label %invoke.cont unwind label %lpad

invoke.cont:                                      ; preds = %entry
  %m_qm = getelementptr inbounds %"struct.(anonymous namespace)::arith_degree_probe::proc", ptr %this1, i32 0, i32 1
  invoke void @_ZN15_scoped_numeralI11mpz_managerILb0EEEC2ERS1_(ptr noundef nonnull align 8 dereferenceable(24) %d1, ptr noundef nonnull align 8 dereferenceable(600) %m_qm)
          to label %invoke.cont5 unwind label %lpad4

invoke.cont5:                                     ; preds = %invoke.cont
  %m_qm6 = getelementptr inbounds %"struct.(anonymous namespace)::arith_degree_probe::proc", ptr %this1, i32 0, i32 1
  invoke void @_ZN15_scoped_numeralI11mpz_managerILb0EEEC2ERS1_(ptr noundef nonnull align 8 dereferenceable(24) %d2, ptr noundef nonnull align 8 dereferenceable(600) %m_qm6)
          to label %invoke.cont8 unwind label %lpad7

invoke.cont8:                                     ; preds = %invoke.cont5
  %m_expr2poly = getelementptr inbounds %"struct.(anonymous namespace)::arith_degree_probe::proc", ptr %this1, i32 0, i32 3
  %2 = load ptr, ptr %lhs, align 8
  %call11 = invoke noundef zeroext i1 @_ZN15expr2polynomial13to_polynomialEP4exprR7obj_refIN10polynomial10polynomialENS3_7managerEER15_scoped_numeralI11mpz_managerILb0EEE(ptr noundef nonnull align 8 dereferenceable(16) %m_expr2poly, ptr noundef %2, ptr noundef nonnull align 8 dereferenceable(16) %p1, ptr noundef nonnull align 8 dereferenceable(24) %d1)
          to label %invoke.cont10 unwind label %lpad9

invoke.cont10:                                    ; preds = %invoke.cont8
  %m_expr2poly12 = getelementptr inbounds %"struct.(anonymous namespace)::arith_degree_probe::proc", ptr %this1, i32 0, i32 3
  %3 = load ptr, ptr %rhs, align 8
  %call14 = invoke noundef zeroext i1 @_ZN15expr2polynomial13to_polynomialEP4exprR7obj_refIN10polynomial10polynomialENS3_7managerEER15_scoped_numeralI11mpz_managerILb0EEE(ptr noundef nonnull align 8 dereferenceable(16) %m_expr2poly12, ptr noundef %3, ptr noundef nonnull align 8 dereferenceable(16) %p2, ptr noundef nonnull align 8 dereferenceable(24) %d2)
          to label %invoke.cont13 unwind label %lpad9

invoke.cont13:                                    ; preds = %invoke.cont10
  invoke void @_ZN12_GLOBAL__N_118arith_degree_probe4proc11updt_degreeERK7obj_refIN10polynomial10polynomialENS3_7managerEE(ptr noundef nonnull align 8 dereferenceable(804) %this1, ptr noundef nonnull align 8 dereferenceable(16) %p1)
          to label %invoke.cont15 unwind label %lpad9

invoke.cont15:                                    ; preds = %invoke.cont13
  invoke void @_ZN12_GLOBAL__N_118arith_degree_probe4proc11updt_degreeERK7obj_refIN10polynomial10polynomialENS3_7managerEE(ptr noundef nonnull align 8 dereferenceable(804) %this1, ptr noundef nonnull align 8 dereferenceable(16) %p2)
          to label %invoke.cont16 unwind label %lpad9

invoke.cont16:                                    ; preds = %invoke.cont15
  call void @_ZN15_scoped_numeralI11mpz_managerILb0EEED2Ev(ptr noundef nonnull align 8 dereferenceable(24) %d2) #3
  call void @_ZN15_scoped_numeralI11mpz_managerILb0EEED2Ev(ptr noundef nonnull align 8 dereferenceable(24) %d1) #3
  call void @_ZN7obj_refIN10polynomial10polynomialENS0_7managerEED2Ev(ptr noundef nonnull align 8 dereferenceable(16) %p2) #3
  call void @_ZN7obj_refIN10polynomial10polynomialENS0_7managerEED2Ev(ptr noundef nonnull align 8 dereferenceable(16) %p1) #3
  ret void

lpad:                                             ; preds = %entry
  %4 = landingpad { ptr, i32 }
          cleanup
  %5 = extractvalue { ptr, i32 } %4, 0
  store ptr %5, ptr %exn.slot, align 8
  %6 = extractvalue { ptr, i32 } %4, 1
  store i32 %6, ptr %ehselector.slot, align 4
  br label %ehcleanup18

lpad4:                                            ; preds = %invoke.cont
  %7 = landingpad { ptr, i32 }
          cleanup
  %8 = extractvalue { ptr, i32 } %7, 0
  store ptr %8, ptr %exn.slot, align 8
  %9 = extractvalue { ptr, i32 } %7, 1
  store i32 %9, ptr %ehselector.slot, align 4
  br label %ehcleanup17

lpad7:                                            ; preds = %invoke.cont5
  %10 = landingpad { ptr, i32 }
          cleanup
  %11 = extractvalue { ptr, i32 } %10, 0
  store ptr %11, ptr %exn.slot, align 8
  %12 = extractvalue { ptr, i32 } %10, 1
  store i32 %12, ptr %ehselector.slot, align 4
  br label %ehcleanup

lpad9:                                            ; preds = %invoke.cont15, %invoke.cont13, %invoke.cont10, %invoke.cont8
  %13 = landingpad { ptr, i32 }
          cleanup
  %14 = extractvalue { ptr, i32 } %13, 0
  store ptr %14, ptr %exn.slot, align 8
  %15 = extractvalue { ptr, i32 } %13, 1
  store i32 %15, ptr %ehselector.slot, align 4
  call void @_ZN15_scoped_numeralI11mpz_managerILb0EEED2Ev(ptr noundef nonnull align 8 dereferenceable(24) %d2) #3
  br label %ehcleanup

ehcleanup:                                        ; preds = %lpad9, %lpad7
  call void @_ZN15_scoped_numeralI11mpz_managerILb0EEED2Ev(ptr noundef nonnull align 8 dereferenceable(24) %d1) #3
  br label %ehcleanup17

ehcleanup17:                                      ; preds = %ehcleanup, %lpad4
  call void @_ZN7obj_refIN10polynomial10polynomialENS0_7managerEED2Ev(ptr noundef nonnull align 8 dereferenceable(16) %p2) #3
  br label %ehcleanup18

ehcleanup18:                                      ; preds = %ehcleanup17, %lpad
  call void @_ZN7obj_refIN10polynomial10polynomialENS0_7managerEED2Ev(ptr noundef nonnull align 8 dereferenceable(16) %p1) #3
  br label %eh.resume

eh.resume:                                        ; preds = %ehcleanup18
  %exn = load ptr, ptr %exn.slot, align 8
  %sel = load i32, ptr %ehselector.slot, align 4
  %lpad.val = insertvalue { ptr, i32 } poison, ptr %exn, 0
  %lpad.val19 = insertvalue { ptr, i32 } %lpad.val, i32 %sel, 1
  resume { ptr, i32 } %lpad.val19
}