; Function Attrs: mustprogress uwtable
define internal fastcc void @_ZN12_GLOBAL__N_118arith_degree_probe4proc7processEP3app(ptr noundef nonnull align 8 dereferenceable(804) %this, ptr %n.32.val, ptr %n.40.val) unnamed_addr #3 align 2 personality ptr @__gxx_personality_v0 {
invoke.cont8:
  %p1 = alloca %class.obj_ref, align 8
  %p2 = alloca %class.obj_ref, align 8
  %d1 = alloca %class._scoped_numeral, align 8
  %d2 = alloca %class._scoped_numeral, align 8
  %m_pm = getelementptr inbounds i8, ptr %this, i64 736
  store ptr null, ptr %p1, align 8
  %m_manager.i = getelementptr inbounds i8, ptr %p1, i64 8
  store ptr %m_pm, ptr %m_manager.i, align 8
  store ptr null, ptr %p2, align 8
  %m_manager.i5 = getelementptr inbounds i8, ptr %p2, i64 8
  store ptr %m_pm, ptr %m_manager.i5, align 8
  %m_qm = getelementptr inbounds i8, ptr %this, i64 8
  store ptr %m_qm, ptr %d1, align 8
  %m_num.i = getelementptr inbounds i8, ptr %d1, i64 8
  store i32 0, ptr %m_num.i, align 8
  %m_kind.i.i = getelementptr inbounds i8, ptr %d1, i64 12
  store i8 0, ptr %m_kind.i.i, align 4
  %m_ptr.i.i = getelementptr inbounds i8, ptr %d1, i64 16
  store ptr null, ptr %m_ptr.i.i, align 8
  store ptr %m_qm, ptr %d2, align 8
  %m_num.i6 = getelementptr inbounds i8, ptr %d2, i64 8
  store i32 0, ptr %m_num.i6, align 8
  %m_kind.i.i7 = getelementptr inbounds i8, ptr %d2, i64 12
  store i8 0, ptr %m_kind.i.i7, align 4
  %m_ptr.i.i10 = getelementptr inbounds i8, ptr %d2, i64 16
  store ptr null, ptr %m_ptr.i.i10, align 8
  %m_expr2poly = getelementptr inbounds i8, ptr %this, i64 744
  %call11 = invoke noundef zeroext i1 @_ZN15expr2polynomial13to_polynomialEP4exprR7obj_refIN10polynomial10polynomialENS3_7managerEER15_scoped_numeralI11mpz_managerILb0EEE(ptr noundef nonnull align 8 dereferenceable(16) %m_expr2poly, ptr noundef %n.32.val, ptr noundef nonnull align 8 dereferenceable(16) %p1, ptr noundef nonnull align 8 dereferenceable(24) %d1)
          to label %invoke.cont10 unwind label %lpad9

invoke.cont10:                                    ; preds = %invoke.cont8
  %call14 = invoke noundef zeroext i1 @_ZN15expr2polynomial13to_polynomialEP4exprR7obj_refIN10polynomial10polynomialENS3_7managerEER15_scoped_numeralI11mpz_managerILb0EEE(ptr noundef nonnull align 8 dereferenceable(16) %m_expr2poly, ptr noundef %n.40.val, ptr noundef nonnull align 8 dereferenceable(16) %p2, ptr noundef nonnull align 8 dereferenceable(24) %d2)
          to label %invoke.cont13 unwind label %lpad9

invoke.cont13:                                    ; preds = %invoke.cont10
  %p1.val = load ptr, ptr %p1, align 8
  %call2.i11 = invoke noundef i32 @_ZN10polynomial7manager12total_degreeEPKNS_10polynomialE(ptr noundef %p1.val)
          to label %call2.i.noexc unwind label %lpad9

call2.i.noexc:                                    ; preds = %invoke.cont13
  %m_max_degree.i = getelementptr inbounds i8, ptr %this, i64 784
  %0 = load i32, ptr %m_max_degree.i, align 8
  %cmp.i = icmp ugt i32 %call2.i11, %0
  br i1 %cmp.i, label %if.then.i, label %invoke.cont15

if.then.i:                                        ; preds = %call2.i.noexc
  store i32 %call2.i11, ptr %m_max_degree.i, align 8
  br label %invoke.cont15

invoke.cont15:                                    ; preds = %if.then.i, %call2.i.noexc
  %conv.i = zext i32 %call2.i11 to i64
  %m_acc_degree.i = getelementptr inbounds i8, ptr %this, i64 792
  %1 = load i64, ptr %m_acc_degree.i, align 8
  %add.i = add i64 %1, %conv.i
  store i64 %add.i, ptr %m_acc_degree.i, align 8
  %m_counter.i = getelementptr inbounds i8, ptr %this, i64 800
  %2 = load i32, ptr %m_counter.i, align 8
  %inc.i = add i32 %2, 1
  store i32 %inc.i, ptr %m_counter.i, align 8
  %p2.val = load ptr, ptr %p2, align 8
  %call2.i21 = invoke noundef i32 @_ZN10polynomial7manager12total_degreeEPKNS_10polynomialE(ptr noundef %p2.val)
          to label %call2.i.noexc20 unwind label %lpad9

call2.i.noexc20:                                  ; preds = %invoke.cont15
  %3 = load i32, ptr %m_max_degree.i, align 8
  %cmp.i13 = icmp ugt i32 %call2.i21, %3
  br i1 %cmp.i13, label %if.then.i19, label %invoke.cont16

if.then.i19:                                      ; preds = %call2.i.noexc20
  store i32 %call2.i21, ptr %m_max_degree.i, align 8
  br label %invoke.cont16

invoke.cont16:                                    ; preds = %if.then.i19, %call2.i.noexc20
  %conv.i14 = zext i32 %call2.i21 to i64
  %4 = load i64, ptr %m_acc_degree.i, align 8
  %add.i16 = add i64 %4, %conv.i14
  store i64 %add.i16, ptr %m_acc_degree.i, align 8
  %5 = load i32, ptr %m_counter.i, align 8
  %inc.i18 = add i32 %5, 1
  store i32 %inc.i18, ptr %m_counter.i, align 8
  %6 = load ptr, ptr %d2, align 8
  invoke void @_ZN11mpz_managerILb0EE3delEPS0_R3mpz(ptr noundef nonnull %6, ptr noundef nonnull align 8 dereferenceable(16) %m_num.i6)
          to label %_ZN15_scoped_numeralI11mpz_managerILb0EEED2Ev.exit unwind label %terminate.lpad.i

terminate.lpad.i:                                 ; preds = %invoke.cont16
  %7 = landingpad { ptr, i32 }
          catch ptr null
  %8 = extractvalue { ptr, i32 } %7, 0
  call void @__clang_call_terminate(ptr %8) #20
  unreachable

_ZN15_scoped_numeralI11mpz_managerILb0EEED2Ev.exit: ; preds = %invoke.cont16
  %9 = load ptr, ptr %d1, align 8
  invoke void @_ZN11mpz_managerILb0EE3delEPS0_R3mpz(ptr noundef nonnull %9, ptr noundef nonnull align 8 dereferenceable(16) %m_num.i)
          to label %_ZN15_scoped_numeralI11mpz_managerILb0EEED2Ev.exit26 unwind label %terminate.lpad.i25

terminate.lpad.i25:                               ; preds = %_ZN15_scoped_numeralI11mpz_managerILb0EEED2Ev.exit
  %10 = landingpad { ptr, i32 }
          catch ptr null
  %11 = extractvalue { ptr, i32 } %10, 0
  call void @__clang_call_terminate(ptr %11) #20
  unreachable

_ZN15_scoped_numeralI11mpz_managerILb0EEED2Ev.exit26: ; preds = %_ZN15_scoped_numeralI11mpz_managerILb0EEED2Ev.exit
  %12 = load ptr, ptr %p2, align 8
  %tobool.not.i.i = icmp eq ptr %12, null
  br i1 %tobool.not.i.i, label %_ZN7obj_refIN10polynomial10polynomialENS0_7managerEED2Ev.exit, label %if.then.i.i

if.then.i.i:                                      ; preds = %_ZN15_scoped_numeralI11mpz_managerILb0EEED2Ev.exit26
  %13 = load ptr, ptr %m_manager.i5, align 8
  invoke void @_ZN10polynomial7manager7dec_refEPNS_10polynomialE(ptr noundef nonnull align 8 dereferenceable(8) %13, ptr noundef nonnull %12)
          to label %_ZN7obj_refIN10polynomial10polynomialENS0_7managerEED2Ev.exit unwind label %terminate.lpad.i27

terminate.lpad.i27:                               ; preds = %if.then.i.i
  %14 = landingpad { ptr, i32 }
          catch ptr null
  %15 = extractvalue { ptr, i32 } %14, 0
  call void @__clang_call_terminate(ptr %15) #20
  unreachable

_ZN7obj_refIN10polynomial10polynomialENS0_7managerEED2Ev.exit: ; preds = %_ZN15_scoped_numeralI11mpz_managerILb0EEED2Ev.exit26, %if.then.i.i
  %16 = load ptr, ptr %p1, align 8
  %tobool.not.i.i28 = icmp eq ptr %16, null
  br i1 %tobool.not.i.i28, label %_ZN7obj_refIN10polynomial10polynomialENS0_7managerEED2Ev.exit32, label %if.then.i.i29

if.then.i.i29:                                    ; preds = %_ZN7obj_refIN10polynomial10polynomialENS0_7managerEED2Ev.exit
  %17 = load ptr, ptr %m_manager.i, align 8
  invoke void @_ZN10polynomial7manager7dec_refEPNS_10polynomialE(ptr noundef nonnull align 8 dereferenceable(8) %17, ptr noundef nonnull %16)
          to label %_ZN7obj_refIN10polynomial10polynomialENS0_7managerEED2Ev.exit32 unwind label %terminate.lpad.i31

terminate.lpad.i31:                               ; preds = %if.then.i.i29
  %18 = landingpad { ptr, i32 }
          catch ptr null
  %19 = extractvalue { ptr, i32 } %18, 0
  call void @__clang_call_terminate(ptr %19) #20
  unreachable

_ZN7obj_refIN10polynomial10polynomialENS0_7managerEED2Ev.exit32: ; preds = %_ZN7obj_refIN10polynomial10polynomialENS0_7managerEED2Ev.exit, %if.then.i.i29
  ret void

lpad9:                                            ; preds = %invoke.cont15, %invoke.cont13, %invoke.cont10, %invoke.cont8
  %20 = landingpad { ptr, i32 }
          cleanup
  call void @_ZN15_scoped_numeralI11mpz_managerILb0EEED2Ev(ptr noundef nonnull align 8 dereferenceable(24) %d2) #19
  call void @_ZN15_scoped_numeralI11mpz_managerILb0EEED2Ev(ptr noundef nonnull align 8 dereferenceable(24) %d1) #19
  call void @_ZN7obj_refIN10polynomial10polynomialENS0_7managerEED2Ev(ptr noundef nonnull align 8 dereferenceable(16) %p2) #19
  call void @_ZN7obj_refIN10polynomial10polynomialENS0_7managerEED2Ev(ptr noundef nonnull align 8 dereferenceable(16) %p1) #19
  resume { ptr, i32 } %20
}